target datalayout = "e-m:e-p270:32:32-p271:32:32-p272:64:64-i64:64-i128:128-f80:128-n8:16:32:64-S128"
target triple = "x86_64-pc-linux-gnu"

%struct.FunctionCallInfoBaseData = type { ptr, ptr, ptr, i32, i8, i16, [0 x %struct.NullableDatum] }
%struct.NullableDatum = type { i64, i8 }
%struct.ExpandedArrayHeader = type { %struct.ExpandedObjectHeader, i32, i32, ptr, ptr, i32, i16, i8, i8, ptr, ptr, i32, i32, i64, ptr, ptr, ptr }
%struct.ExpandedObjectHeader = type { i32, ptr, ptr, [10 x i8], [10 x i8] }
%struct.FmgrInfo = type { ptr, i32, i16, i8, i8, i8, ptr, ptr, ptr }
%struct.ArrayMetaState = type { i32, i16, i8, i8, i8, i32, i32, %struct.FmgrInfo }

@.str = private unnamed_addr constant [21 x i8] c"integer out of range\00", align 1
@.str.1 = private unnamed_addr constant [18 x i8] c"array_userfuncs.c\00", align 1
@__func__.array_append = private unnamed_addr constant [13 x i8] c"array_append\00", align 1
@.str.2 = private unnamed_addr constant [48 x i8] c"argument must be empty or one-dimensional array\00", align 1

; Function Attrs: inlinehint nounwind uwtable
define internal i64 @PointerGetDatum(ptr noundef %0) #2 {
  %2 = alloca ptr, align 8
  store ptr %0, ptr %2, align 8
  %3 = load ptr, ptr %2, align 8
  %4 = ptrtoint ptr %3 to i64
  ret i64 %4
}

; Function Attrs: inlinehint nounwind uwtable
define internal i64 @EOHPGetRWDatum(ptr noundef %0) #2 {
  %2 = alloca ptr, align 8
  store ptr %0, ptr %2, align 8
  %3 = load ptr, ptr %2, align 8
  %4 = getelementptr inbounds nuw %struct.ExpandedObjectHeader, ptr %3, i32 0, i32 3
  %5 = getelementptr inbounds [10 x i8], ptr %4, i64 0, i64 0
  %6 = call i64 @PointerGetDatum(ptr noundef %5)
  ret i64 %6
}

; Function Attrs: inlinehint nounwind uwtable
define internal zeroext i1 @pg_add_s32_overflow(i32 noundef %0, i32 noundef %1, ptr noundef %2) #2 {
  %4 = alloca i32, align 4
  %5 = alloca i32, align 4
  %6 = alloca ptr, align 8
  store i32 %0, ptr %4, align 4
  store i32 %1, ptr %5, align 4
  store ptr %2, ptr %6, align 8
  %7 = load i32, ptr %4, align 4
  %8 = load i32, ptr %5, align 4
  %9 = load ptr, ptr %6, align 8
  %10 = call { i32, i1 } @llvm.sadd.with.overflow.i32(i32 %7, i32 %8)
  %11 = extractvalue { i32, i1 } %10, 1
  %12 = extractvalue { i32, i1 } %10, 0
  store i32 %12, ptr %9, align 4
  ret i1 %11
}

; Function Attrs: nounwind uwtable
define dso_local i64 @array_append(ptr noundef %0) #0 {
  %2 = alloca ptr, align 8
  %3 = alloca ptr, align 8
  %4 = alloca i64, align 8
  %5 = alloca i8, align 1
  %6 = alloca i64, align 8
  %7 = alloca ptr, align 8
  %8 = alloca ptr, align 8
  %9 = alloca i32, align 4
  %10 = alloca ptr, align 8
  store ptr %0, ptr %2, align 8
  call void @llvm.lifetime.start.p0(i64 8, ptr %3) #7
  call void @llvm.lifetime.start.p0(i64 8, ptr %4) #7
  call void @llvm.lifetime.start.p0(i64 1, ptr %5) #7
  call void @llvm.lifetime.start.p0(i64 8, ptr %6) #7
  call void @llvm.lifetime.start.p0(i64 8, ptr %7) #7
  call void @llvm.lifetime.start.p0(i64 8, ptr %8) #7
  call void @llvm.lifetime.start.p0(i64 4, ptr %9) #7
  call void @llvm.lifetime.start.p0(i64 8, ptr %10) #7
  %11 = load ptr, ptr %2, align 8
  %12 = call ptr @fetch_array_arg_replace_nulls(ptr noundef %11, i32 noundef 0)
  store ptr %12, ptr %3, align 8
  %13 = load ptr, ptr %2, align 8
  %14 = getelementptr inbounds nuw %struct.FunctionCallInfoBaseData, ptr %13, i32 0, i32 6
  %15 = getelementptr inbounds [0 x %struct.NullableDatum], ptr %14, i64 0, i64 1
  %16 = getelementptr inbounds nuw %struct.NullableDatum, ptr %15, i32 0, i32 1
  %17 = load i8, ptr %16, align 8, !range !4, !noundef !5
  %18 = trunc i8 %17 to i1
  %19 = zext i1 %18 to i8
  store i8 %19, ptr %5, align 1
  %20 = load i8, ptr %5, align 1, !range !4, !noundef !5
  %21 = trunc i8 %20 to i1
  br i1 %21, label %22, label %23

22:                                               ; preds = %1
  store i64 0, ptr %4, align 8
  br label %29

23:                                               ; preds = %1
  %24 = load ptr, ptr %2, align 8
  %25 = getelementptr inbounds nuw %struct.FunctionCallInfoBaseData, ptr %24, i32 0, i32 6
  %26 = getelementptr inbounds [0 x %struct.NullableDatum], ptr %25, i64 0, i64 1
  %27 = getelementptr inbounds nuw %struct.NullableDatum, ptr %26, i32 0, i32 0
  %28 = load i64, ptr %27, align 8
  store i64 %28, ptr %4, align 8
  br label %29

29:                                               ; preds = %23, %22
  %30 = load ptr, ptr %3, align 8
  %31 = getelementptr inbounds nuw %struct.ExpandedArrayHeader, ptr %30, i32 0, i32 2
  %32 = load i32, ptr %31, align 4
  %33 = icmp eq i32 %32, 1
  br i1 %33, label %34, label %61

34:                                               ; preds = %29
  %35 = load ptr, ptr %3, align 8
  %36 = getelementptr inbounds nuw %struct.ExpandedArrayHeader, ptr %35, i32 0, i32 4
  %37 = load ptr, ptr %36, align 8
  store ptr %37, ptr %8, align 8
  %38 = load ptr, ptr %3, align 8
  %39 = getelementptr inbounds nuw %struct.ExpandedArrayHeader, ptr %38, i32 0, i32 3
  %40 = load ptr, ptr %39, align 8
  store ptr %40, ptr %7, align 8
  %41 = load ptr, ptr %8, align 8
  %42 = getelementptr inbounds i32, ptr %41, i64 0
  %43 = load i32, ptr %42, align 4
  %44 = load ptr, ptr %7, align 8
  %45 = getelementptr inbounds i32, ptr %44, i64 0
  %46 = load i32, ptr %45, align 4
  %47 = call zeroext i1 @pg_add_s32_overflow(i32 noundef %43, i32 noundef %46, ptr noundef %9)
  br i1 %47, label %48, label %60

48:                                               ; preds = %34
  br label %49

49:                                               ; preds = %48
  br i1 true, label %50, label %52

50:                                               ; preds = %49
  %51 = call zeroext i1 @errstart_cold(i32 noundef 21, ptr noundef null) #8
  br i1 %51, label %54, label %57

52:                                               ; preds = %49
  %53 = call zeroext i1 @errstart(i32 noundef 21, ptr noundef null)
  br i1 %53, label %54, label %57

54:                                               ; preds = %52, %50
  %55 = call i32 @errcode(i32 noundef 50331778)
  %56 = call i32 (ptr, ...) @errmsg(ptr noundef @.str)
  call void @errfinish(ptr noundef @.str.1, i32 noundef 152, ptr noundef @__func__.array_append)
  br label %57

57:                                               ; preds = %54, %52, %50
  unreachable

58:                                               ; No predecessors!
  br label %59

59:                                               ; preds = %58
  br label %60

60:                                               ; preds = %59, %34
  br label %80

61:                                               ; preds = %29
  %62 = load ptr, ptr %3, align 8
  %63 = getelementptr inbounds nuw %struct.ExpandedArrayHeader, ptr %62, i32 0, i32 2
  %64 = load i32, ptr %63, align 4
  %65 = icmp eq i32 %64, 0
  br i1 %65, label %66, label %67

66:                                               ; preds = %61
  store i32 1, ptr %9, align 4
  br label %79

67:                                               ; preds = %61
  br label %68

68:                                               ; preds = %67
  br i1 true, label %69, label %71

69:                                               ; preds = %68
  %70 = call zeroext i1 @errstart_cold(i32 noundef 21, ptr noundef null) #8
  br i1 %70, label %73, label %76

71:                                               ; preds = %68
  %72 = call zeroext i1 @errstart(i32 noundef 21, ptr noundef null)
  br i1 %72, label %73, label %76

73:                                               ; preds = %71, %69
  %74 = call i32 @errcode(i32 noundef 130)
  %75 = call i32 (ptr, ...) @errmsg(ptr noundef @.str.2)
  call void @errfinish(ptr noundef @.str.1, i32 noundef 159, ptr noundef @__func__.array_append)
  br label %76

76:                                               ; preds = %73, %71, %69
  unreachable

77:                                               ; No predecessors!
  br label %78

78:                                               ; preds = %77
  br label %79

79:                                               ; preds = %78, %66
  br label %80

80:                                               ; preds = %79, %60
  %81 = load ptr, ptr %2, align 8
  %82 = getelementptr inbounds nuw %struct.FunctionCallInfoBaseData, ptr %81, i32 0, i32 0
  %83 = load ptr, ptr %82, align 8
  %84 = getelementptr inbounds nuw %struct.FmgrInfo, ptr %83, i32 0, i32 6
  %85 = load ptr, ptr %84, align 8
  store ptr %85, ptr %10, align 8
  %86 = load ptr, ptr %3, align 8
  %87 = getelementptr inbounds nuw %struct.ExpandedArrayHeader, ptr %86, i32 0, i32 0
  %88 = call i64 @EOHPGetRWDatum(ptr noundef %87)
  %89 = load i64, ptr %4, align 8
  %90 = load i8, ptr %5, align 1, !range !4, !noundef !5
  %91 = trunc i8 %90 to i1
  %92 = load ptr, ptr %10, align 8
  %93 = getelementptr inbounds nuw %struct.ArrayMetaState, ptr %92, i32 0, i32 1
  %94 = load i16, ptr %93, align 4
  %95 = sext i16 %94 to i32
  %96 = load ptr, ptr %10, align 8
  %97 = getelementptr inbounds nuw %struct.ArrayMetaState, ptr %96, i32 0, i32 2
  %98 = load i8, ptr %97, align 2, !range !4, !noundef !5
  %99 = trunc i8 %98 to i1
  %100 = load ptr, ptr %10, align 8
  %101 = getelementptr inbounds nuw %struct.ArrayMetaState, ptr %100, i32 0, i32 3
  %102 = load i8, ptr %101, align 1
  %103 = call i64 @array_set_element(i64 noundef %88, i32 noundef 1, ptr noundef %9, i64 noundef %89, i1 noundef zeroext %91, i32 noundef -1, i32 noundef %95, i1 noundef zeroext %99, i8 noundef signext %102)
  store i64 %103, ptr %6, align 8
  %104 = load i64, ptr %6, align 8
  call void @llvm.lifetime.end.p0(i64 8, ptr %10) #7
  call void @llvm.lifetime.end.p0(i64 4, ptr %9) #7
  call void @llvm.lifetime.end.p0(i64 8, ptr %8) #7
  call void @llvm.lifetime.end.p0(i64 8, ptr %7) #7
  call void @llvm.lifetime.end.p0(i64 8, ptr %6) #7
  call void @llvm.lifetime.end.p0(i64 1, ptr %5) #7
  call void @llvm.lifetime.end.p0(i64 8, ptr %4) #7
  call void @llvm.lifetime.end.p0(i64 8, ptr %3) #7
  ret i64 %104
}