; Function Attrs: nounwind uwtable
define dso_local i64 @array_append(ptr noundef %0) local_unnamed_addr #0 {
  %2 = alloca i32, align 4
  call void @llvm.lifetime.start.p0(i64 4, ptr nonnull %2) #10
  %3 = tail call fastcc ptr @fetch_array_arg_replace_nulls(ptr noundef %0, i32 noundef 0)
  %4 = getelementptr inbounds nuw i8, ptr %0, i64 56
  %5 = load i8, ptr %4, align 8, !range !4, !noundef !5
  %6 = trunc nuw i8 %5 to i1
  br i1 %6, label %10, label %7

7:                                                ; preds = %1
  %8 = getelementptr inbounds nuw i8, ptr %0, i64 48
  %9 = load i64, ptr %8, align 8
  br label %10

10:                                               ; preds = %1, %7
  %.0 = phi i64 [ %9, %7 ], [ 0, %1 ]
  %11 = getelementptr inbounds nuw i8, ptr %3, i64 52
  %12 = load i32, ptr %11, align 4
  switch i32 %12, label %28 [
    i32 1, label %13
    i32 0, label %27
  ]

13:                                               ; preds = %10
  %14 = getelementptr inbounds nuw i8, ptr %3, i64 64
  %15 = load ptr, ptr %14, align 8
  %16 = getelementptr inbounds nuw i8, ptr %3, i64 56
  %17 = load ptr, ptr %16, align 8
  %18 = load i32, ptr %15, align 4
  %19 = load i32, ptr %17, align 4
  %20 = tail call { i32, i1 } @llvm.sadd.with.overflow.i32(i32 %18, i32 %19)
  %21 = extractvalue { i32, i1 } %20, 1
  %22 = extractvalue { i32, i1 } %20, 0
  store i32 %22, ptr %2, align 4
  br i1 %21, label %23, label %32

23:                                               ; preds = %13
  %24 = tail call zeroext i1 @errstart_cold(i32 noundef 21, ptr noundef null) #11
  tail call void @llvm.assume(i1 %24)
  %25 = tail call i32 @errcode(i32 noundef 50331778) #10
  %26 = tail call i32 (ptr, ...) @errmsg(ptr noundef nonnull @.str) #10
  tail call void @errfinish(ptr noundef nonnull @.str.1, i32 noundef 152, ptr noundef nonnull @__func__.array_append) #10
  unreachable

27:                                               ; preds = %10
  store i32 1, ptr %2, align 4
  br label %32

28:                                               ; preds = %10
  %29 = tail call zeroext i1 @errstart_cold(i32 noundef 21, ptr noundef null) #11
  tail call void @llvm.assume(i1 %29)
  %30 = tail call i32 @errcode(i32 noundef 130) #10
  %31 = tail call i32 (ptr, ...) @errmsg(ptr noundef nonnull @.str.2) #10
  tail call void @errfinish(ptr noundef nonnull @.str.1, i32 noundef 159, ptr noundef nonnull @__func__.array_append) #10
  unreachable

32:                                               ; preds = %13, %27
  %33 = load ptr, ptr %0, align 8
  %34 = getelementptr inbounds nuw i8, ptr %33, i64 24
  %35 = load ptr, ptr %34, align 8
  %36 = getelementptr inbounds nuw i8, ptr %3, i64 24
  %37 = ptrtoint ptr %36 to i64
  %38 = getelementptr inbounds nuw i8, ptr %35, i64 4
  %39 = load i16, ptr %38, align 4
  %40 = sext i16 %39 to i32
  %41 = getelementptr inbounds nuw i8, ptr %35, i64 6
  %42 = load i8, ptr %41, align 2, !range !4, !noundef !5
  %43 = trunc nuw i8 %42 to i1
  %44 = getelementptr inbounds nuw i8, ptr %35, i64 7
  %45 = load i8, ptr %44, align 1
  %46 = call i64 @array_set_element(i64 noundef %37, i32 noundef 1, ptr noundef nonnull %2, i64 noundef %.0, i1 noundef zeroext %6, i32 noundef -1, i32 noundef %40, i1 noundef zeroext %43, i8 noundef signext %45) #10
  call void @llvm.lifetime.end.p0(i64 4, ptr nonnull %2) #10
  ret i64 %46
}